; Function Attrs: nounwind uwtable
define hidden zeroext i1 @SDL_WaitForGPUIdle_REAL(ptr noundef readonly captures(address_is_null) %0) local_unnamed_addr #0 {
  %2 = icmp eq ptr %0, null
  br i1 %2, label %3, label %5

3:                                                ; preds = %1
  %4 = tail call zeroext i1 (ptr, ...) @SDL_SetError_REAL(ptr noundef nonnull @.str.3) #7
  br label %11

5:                                                ; preds = %1
  %6 = getelementptr inbounds nuw i8, ptr %0, i64 616
  %7 = load ptr, ptr %6, align 8
  %8 = getelementptr inbounds nuw i8, ptr %0, i64 664
  %9 = load ptr, ptr %8, align 8
  %10 = tail call zeroext i1 %7(ptr noundef %9) #7
  br label %11

11:                                               ; preds = %5, %3
  %.0 = phi i1 [ false, %3 ], [ %10, %5 ]
  ret i1 %.0
}